target datalayout = "e-m:e-p270:32:32-p271:32:32-p272:64:64-i64:64-i128:128-f80:128-n8:16:32:64-S128"
target triple = "x86_64-pc-linux-gnu"

%struct.H5CX_node_t = type { %struct.H5CX_t, ptr }
%struct.H5CX_t = type { i64, ptr, i64, ptr, i64, ptr, i64, ptr, i64, ptr, i64, ptr, i64, i32, i64, i8, ptr, i8, ptr, i8, i32, i8, [3 x double], i8, i64, i8, i32, i8, %struct.H5Z_cb_t, i8, ptr, i8, %struct.H5T_vlen_alloc_info_t, i8, %struct.H5T_conv_cb_t, i8, i32, i8, i8, i8, i32, i8, i8, i32, i8, i8, i32, i8, i32, i8, i64, i8, i8, i8, i8, i8, ptr, i8, ptr, i8, i32, i8, i32, i8, %struct.H5VL_connector_prop_t, i8, ptr, i8 }
%struct.H5Z_cb_t = type { ptr, ptr }
%struct.H5T_vlen_alloc_info_t = type { ptr, ptr, ptr, ptr }
%struct.H5T_conv_cb_t = type { ptr, ptr }
%struct.H5VL_connector_prop_t = type { ptr, ptr }

@H5_libinit_g = external global i8, align 1
@H5_libterm_g = external global i8, align 1
@.str = private unnamed_addr constant [97 x i8] c"generated/home/dtcxzyw/WorkSpace/Projects/compilers/llvm-opt-benchmark/bench/hdf5/hdf5/src/H5L.c\00", align 1
@H5E_FUNC_g = external global i64, align 8
@H5E_CANTINIT_g = external global i64, align 8
@.str.1 = private unnamed_addr constant [30 x i8] c"library initialization failed\00", align 1
@H5L_init_g = external global i8, align 1
@.str.2 = private unnamed_addr constant [32 x i8] c"interface initialization failed\00", align 1
@H5E_CANTSET_g = external global i64, align 8
@.str.3 = private unnamed_addr constant [22 x i8] c"can't set API context\00", align 1
@H5E_ARGS_g = external global i64, align 8
@H5E_BADVALUE_g = external global i64, align 8
@H5E_LINK_g = external global i64, align 8
@H5E_NOTREGISTERED_g = external global i64, align 8
@__func__.H5Lunregister = private unnamed_addr constant [14 x i8] c"H5Lunregister\00", align 1
@.str.70 = private unnamed_addr constant [18 x i8] c"invalid link type\00", align 1
@.str.71 = private unnamed_addr constant [31 x i8] c"unable to unregister link type\00", align 1

; Function Attrs: nounwind uwtable
define i32 @H5Lunregister(i32 noundef %0) #0 {
  %2 = alloca i32, align 4
  %3 = alloca i32, align 4
  %4 = alloca %struct.H5CX_node_t, align 8
  %5 = alloca i8, align 1
  %6 = alloca i8, align 1
  store i32 %0, ptr %2, align 4, !tbaa !12
  call void @llvm.lifetime.start.p0(i64 4, ptr %3) #8
  store i32 0, ptr %3, align 4, !tbaa !12
  call void @llvm.lifetime.start.p0(i64 480, ptr %4) #8
  call void @llvm.memset.p0.i64(ptr align 8 %4, i8 0, i64 480, i1 false)
  call void @llvm.lifetime.start.p0(i64 1, ptr %5) #8
  store i8 0, ptr %5, align 1, !tbaa !14
  call void @llvm.lifetime.start.p0(i64 1, ptr %6) #8
  store i8 0, ptr %6, align 1, !tbaa !14
  br label %7

7:                                                ; preds = %1
  %8 = load i8, ptr @H5_libinit_g, align 1, !tbaa !14, !range !16, !noundef !17
  %9 = trunc i8 %8 to i1
  br i1 %9, label %14, label %10

10:                                               ; preds = %7
  %11 = load i8, ptr @H5_libterm_g, align 1, !tbaa !14, !range !16, !noundef !17
  %12 = trunc i8 %11 to i1
  %13 = xor i1 %12, true
  br label %14

14:                                               ; preds = %10, %7
  %15 = phi i1 [ false, %7 ], [ %13, %10 ]
  %16 = xor i1 %15, true
  %17 = xor i1 %16, true
  %18 = zext i1 %17 to i32
  %19 = sext i32 %18 to i64
  %20 = call i64 @llvm.expect.i64(i64 %19, i64 0)
  %21 = icmp ne i64 %20, 0
  br i1 %21, label %22, label %51

22:                                               ; preds = %14
  %23 = call i32 @H5_init_library()
  %24 = icmp slt i32 %23, 0
  %25 = xor i1 %24, true
  %26 = xor i1 %25, true
  %27 = zext i1 %26 to i32
  %28 = sext i32 %27 to i64
  %29 = call i64 @llvm.expect.i64(i64 %28, i64 0)
  %30 = icmp ne i64 %29, 0
  br i1 %30, label %31, label %50

31:                                               ; preds = %22
  br label %32

32:                                               ; preds = %31
  br label %33

33:                                               ; preds = %32
  br label %34

34:                                               ; preds = %33
  %35 = load i64, ptr @H5E_FUNC_g, align 8, !tbaa !3
  %36 = load i64, ptr @H5E_CANTINIT_g, align 8, !tbaa !3
  %37 = call i32 (ptr, ptr, i32, i64, i64, ptr, ...) @H5E_printf_stack(ptr noundef @.str, ptr noundef @__func__.H5Lunregister, i32 noundef 1406, i64 noundef %35, i64 noundef %36, ptr noundef @.str.1)
  br label %38

38:                                               ; preds = %34
  br label %39

39:                                               ; preds = %38
  store i8 1, ptr %6, align 1, !tbaa !14
  %40 = load i8, ptr %6, align 1, !tbaa !14, !range !16, !noundef !17
  %41 = trunc i8 %40 to i1
  %42 = zext i1 %41 to i8
  store i8 %42, ptr %6, align 1, !tbaa !14
  br label %43

43:                                               ; preds = %39
  br label %44

44:                                               ; preds = %43
  br label %45

45:                                               ; preds = %44
  store i32 -1, ptr %3, align 4, !tbaa !12
  br label %173

46:                                               ; No predecessors!
  br label %47

47:                                               ; preds = %46
  br label %48

48:                                               ; preds = %47
  br label %49

49:                                               ; preds = %48
  br label %50

50:                                               ; preds = %49, %22
  br label %51

51:                                               ; preds = %50, %14
  %52 = load i8, ptr @H5L_init_g, align 1, !tbaa !14, !range !16, !noundef !17
  %53 = trunc i8 %52 to i1
  br i1 %53, label %58, label %54

54:                                               ; preds = %51
  %55 = load i8, ptr @H5_libterm_g, align 1, !tbaa !14, !range !16, !noundef !17
  %56 = trunc i8 %55 to i1
  %57 = xor i1 %56, true
  br label %58

58:                                               ; preds = %54, %51
  %59 = phi i1 [ false, %51 ], [ %57, %54 ]
  %60 = xor i1 %59, true
  %61 = xor i1 %60, true
  %62 = zext i1 %61 to i32
  %63 = sext i32 %62 to i64
  %64 = call i64 @llvm.expect.i64(i64 %63, i64 0)
  %65 = icmp ne i64 %64, 0
  br i1 %65, label %66, label %89

66:                                               ; preds = %58
  store i8 1, ptr @H5L_init_g, align 1, !tbaa !14
  %67 = call i32 @H5L__init_package()
  %68 = icmp slt i32 %67, 0
  br i1 %68, label %69, label %88

69:                                               ; preds = %66
  store i8 0, ptr @H5L_init_g, align 1, !tbaa !14
  br label %70

70:                                               ; preds = %69
  br label %71

71:                                               ; preds = %70
  br label %72

72:                                               ; preds = %71
  %73 = load i64, ptr @H5E_FUNC_g, align 8, !tbaa !3
  %74 = load i64, ptr @H5E_CANTINIT_g, align 8, !tbaa !3
  %75 = call i32 (ptr, ptr, i32, i64, i64, ptr, ...) @H5E_printf_stack(ptr noundef @.str, ptr noundef @__func__.H5Lunregister, i32 noundef 1406, i64 noundef %73, i64 noundef %74, ptr noundef @.str.2)
  br label %76

76:                                               ; preds = %72
  br label %77

77:                                               ; preds = %76
  store i8 1, ptr %6, align 1, !tbaa !14
  %78 = load i8, ptr %6, align 1, !tbaa !14, !range !16, !noundef !17
  %79 = trunc i8 %78 to i1
  %80 = zext i1 %79 to i8
  store i8 %80, ptr %6, align 1, !tbaa !14
  br label %81

81:                                               ; preds = %77
  br label %82

82:                                               ; preds = %81
  br label %83

83:                                               ; preds = %82
  store i32 -1, ptr %3, align 4, !tbaa !12
  br label %173

84:                                               ; No predecessors!
  br label %85

85:                                               ; preds = %84
  br label %86

86:                                               ; preds = %85
  br label %87

87:                                               ; preds = %86
  br label %88

88:                                               ; preds = %87, %66
  br label %89

89:                                               ; preds = %88, %58
  br label %90

90:                                               ; preds = %89
  br label %91

91:                                               ; preds = %90
  br label %92

92:                                               ; preds = %91
  %93 = call i32 @H5CX_push(ptr noundef %4)
  %94 = icmp slt i32 %93, 0
  %95 = xor i1 %94, true
  %96 = xor i1 %95, true
  %97 = zext i1 %96 to i32
  %98 = sext i32 %97 to i64
  %99 = call i64 @llvm.expect.i64(i64 %98, i64 0)
  %100 = icmp ne i64 %99, 0
  br i1 %100, label %101, label %120

101:                                              ; preds = %92
  br label %102

102:                                              ; preds = %101
  br label %103

103:                                              ; preds = %102
  br label %104

104:                                              ; preds = %103
  %105 = load i64, ptr @H5E_FUNC_g, align 8, !tbaa !3
  %106 = load i64, ptr @H5E_CANTSET_g, align 8, !tbaa !3
  %107 = call i32 (ptr, ptr, i32, i64, i64, ptr, ...) @H5E_printf_stack(ptr noundef @.str, ptr noundef @__func__.H5Lunregister, i32 noundef 1406, i64 noundef %105, i64 noundef %106, ptr noundef @.str.3)
  br label %108

108:                                              ; preds = %104
  br label %109

109:                                              ; preds = %108
  store i8 1, ptr %6, align 1, !tbaa !14
  %110 = load i8, ptr %6, align 1, !tbaa !14, !range !16, !noundef !17
  %111 = trunc i8 %110 to i1
  %112 = zext i1 %111 to i8
  store i8 %112, ptr %6, align 1, !tbaa !14
  br label %113

113:                                              ; preds = %109
  br label %114

114:                                              ; preds = %113
  br label %115

115:                                              ; preds = %114
  store i32 -1, ptr %3, align 4, !tbaa !12
  br label %173

116:                                              ; No predecessors!
  br label %117

117:                                              ; preds = %116
  br label %118

118:                                              ; preds = %117
  br label %119

119:                                              ; preds = %118
  br label %121

120:                                              ; preds = %92
  store i8 1, ptr %5, align 1, !tbaa !14
  br label %121

121:                                              ; preds = %120, %119
  br label %122

122:                                              ; preds = %121
  br label %123

123:                                              ; preds = %122
  %124 = call i32 @H5E_clear_stack()
  %125 = load i32, ptr %2, align 4, !tbaa !12
  %126 = icmp slt i32 %125, 0
  br i1 %126, label %130, label %127

127:                                              ; preds = %123
  %128 = load i32, ptr %2, align 4, !tbaa !12
  %129 = icmp sgt i32 %128, 255
  br i1 %129, label %130, label %149

130:                                              ; preds = %127, %123
  br label %131

131:                                              ; preds = %130
  br label %132

132:                                              ; preds = %131
  br label %133

133:                                              ; preds = %132
  %134 = load i64, ptr @H5E_ARGS_g, align 8, !tbaa !3
  %135 = load i64, ptr @H5E_BADVALUE_g, align 8, !tbaa !3
  %136 = call i32 (ptr, ptr, i32, i64, i64, ptr, ...) @H5E_printf_stack(ptr noundef @.str, ptr noundef @__func__.H5Lunregister, i32 noundef 1410, i64 noundef %134, i64 noundef %135, ptr noundef @.str.70)
  br label %137

137:                                              ; preds = %133
  br label %138

138:                                              ; preds = %137
  store i8 1, ptr %6, align 1, !tbaa !14
  %139 = load i8, ptr %6, align 1, !tbaa !14, !range !16, !noundef !17
  %140 = trunc i8 %139 to i1
  %141 = zext i1 %140 to i8
  store i8 %141, ptr %6, align 1, !tbaa !14
  br label %142

142:                                              ; preds = %138
  br label %143

143:                                              ; preds = %142
  br label %144

144:                                              ; preds = %143
  store i32 -1, ptr %3, align 4, !tbaa !12
  br label %173

145:                                              ; No predecessors!
  br label %146

146:                                              ; preds = %145
  br label %147

147:                                              ; preds = %146
  br label %148

148:                                              ; preds = %147
  br label %149

149:                                              ; preds = %148, %127
  %150 = load i32, ptr %2, align 4, !tbaa !12
  %151 = call i32 @H5L_unregister(i32 noundef %150)
  %152 = icmp slt i32 %151, 0
  br i1 %152, label %153, label %172

153:                                              ; preds = %149
  br label %154

154:                                              ; preds = %153
  br label %155

155:                                              ; preds = %154
  br label %156

156:                                              ; preds = %155
  %157 = load i64, ptr @H5E_LINK_g, align 8, !tbaa !3
  %158 = load i64, ptr @H5E_NOTREGISTERED_g, align 8, !tbaa !3
  %159 = call i32 (ptr, ptr, i32, i64, i64, ptr, ...) @H5E_printf_stack(ptr noundef @.str, ptr noundef @__func__.H5Lunregister, i32 noundef 1414, i64 noundef %157, i64 noundef %158, ptr noundef @.str.71)
  br label %160

160:                                              ; preds = %156
  br label %161

161:                                              ; preds = %160
  store i8 1, ptr %6, align 1, !tbaa !14
  %162 = load i8, ptr %6, align 1, !tbaa !14, !range !16, !noundef !17
  %163 = trunc i8 %162 to i1
  %164 = zext i1 %163 to i8
  store i8 %164, ptr %6, align 1, !tbaa !14
  br label %165

165:                                              ; preds = %161
  br label %166

166:                                              ; preds = %165
  br label %167

167:                                              ; preds = %166
  store i32 -1, ptr %3, align 4, !tbaa !12
  br label %173

168:                                              ; No predecessors!
  br label %169

169:                                              ; preds = %168
  br label %170

170:                                              ; preds = %169
  br label %171

171:                                              ; preds = %170
  br label %172

172:                                              ; preds = %171, %149
  br label %173

173:                                              ; preds = %172, %167, %144, %115, %83, %45
  %174 = load i8, ptr %5, align 1, !tbaa !14, !range !16, !noundef !17
  %175 = trunc i8 %174 to i1
  %176 = xor i1 %175, true
  %177 = xor i1 %176, true
  %178 = zext i1 %177 to i32
  %179 = sext i32 %178 to i64
  %180 = call i64 @llvm.expect.i64(i64 %179, i64 1)
  %181 = icmp ne i64 %180, 0
  br i1 %181, label %182, label %184

182:                                              ; preds = %173
  %183 = call i32 @H5CX_pop(i1 noundef zeroext true)
  store i8 0, ptr %5, align 1, !tbaa !14
  br label %184

184:                                              ; preds = %182, %173
  %185 = load i8, ptr %6, align 1, !tbaa !14, !range !16, !noundef !17
  %186 = trunc i8 %185 to i1
  %187 = xor i1 %186, true
  %188 = xor i1 %187, true
  %189 = zext i1 %188 to i32
  %190 = sext i32 %189 to i64
  %191 = call i64 @llvm.expect.i64(i64 %190, i64 0)
  %192 = icmp ne i64 %191, 0
  br i1 %192, label %193, label %195

193:                                              ; preds = %184
  %194 = call i32 @H5E_dump_api_stack()
  br label %195

195:                                              ; preds = %193, %184
  %196 = load i32, ptr %3, align 4, !tbaa !12
  call void @llvm.lifetime.end.p0(i64 1, ptr %6) #8
  call void @llvm.lifetime.end.p0(i64 1, ptr %5) #8
  call void @llvm.lifetime.end.p0(i64 480, ptr %4) #8
  call void @llvm.lifetime.end.p0(i64 4, ptr %3) #8
  ret i32 %196
}