; Function Attrs: nounwind uwtable
define range(i32 -1, 1) i32 @H5Lunregister(i32 noundef %0) local_unnamed_addr #0 {
  %2 = alloca %struct.H5CX_node_t, align 8
  call void @llvm.lifetime.start.p0(i64 480, ptr nonnull %2) #7
  call void @llvm.memset.p0.i64(ptr noundef nonnull align 8 dereferenceable(480) %2, i8 0, i64 480, i1 false)
  %3 = load i8, ptr @H5_libinit_g, align 1, !tbaa !7, !range !9, !noundef !10
  %4 = trunc nuw i8 %3 to i1
  %5 = load i8, ptr @H5_libterm_g, align 1, !range !9
  %6 = trunc nuw i8 %5 to i1
  %7 = select i1 %4, i1 true, i1 %6
  br i1 %7, label %15, label %8, !prof !11

8:                                                ; preds = %1
  %9 = tail call i32 @H5_init_library() #7
  %10 = icmp slt i32 %9, 0
  br i1 %10, label %11, label %._crit_edge, !prof !12

._crit_edge:                                      ; preds = %8
  %.pre = load i8, ptr @H5_libterm_g, align 1, !range !9
  br label %15

11:                                               ; preds = %8
  %12 = load i64, ptr @H5E_FUNC_g, align 8, !tbaa !3
  %13 = load i64, ptr @H5E_CANTINIT_g, align 8, !tbaa !3
  %14 = tail call i32 (ptr, ptr, i32, i64, i64, ptr, ...) @H5E_printf_stack(ptr noundef nonnull @.str, ptr noundef nonnull @__func__.H5Lunregister, i32 noundef 1406, i64 noundef %12, i64 noundef %13, ptr noundef nonnull @.str.1) #7
  br label %.thread23

15:                                               ; preds = %._crit_edge, %1
  %16 = phi i8 [ %.pre, %._crit_edge ], [ %5, %1 ]
  %17 = load i8, ptr @H5L_init_g, align 1, !tbaa !7, !range !9, !noundef !10
  %18 = trunc nuw i8 %17 to i1
  %19 = trunc nuw i8 %16 to i1
  %20 = select i1 %18, i1 true, i1 %19
  br i1 %20, label %28, label %21, !prof !11

21:                                               ; preds = %15
  store i8 1, ptr @H5L_init_g, align 1, !tbaa !7
  %22 = tail call i32 @H5L__init_package() #7
  %23 = icmp slt i32 %22, 0
  br i1 %23, label %24, label %28, !prof !13

24:                                               ; preds = %21
  store i8 0, ptr @H5L_init_g, align 1, !tbaa !7
  %25 = load i64, ptr @H5E_FUNC_g, align 8, !tbaa !3
  %26 = load i64, ptr @H5E_CANTINIT_g, align 8, !tbaa !3
  %27 = tail call i32 (ptr, ptr, i32, i64, i64, ptr, ...) @H5E_printf_stack(ptr noundef nonnull @.str, ptr noundef nonnull @__func__.H5Lunregister, i32 noundef 1406, i64 noundef %25, i64 noundef %26, ptr noundef nonnull @.str.2) #7
  br label %.thread23

28:                                               ; preds = %15, %21
  %29 = call i32 @H5CX_push(ptr noundef nonnull %2) #7
  %30 = icmp slt i32 %29, 0
  br i1 %30, label %31, label %35, !prof !12

31:                                               ; preds = %28
  %32 = load i64, ptr @H5E_FUNC_g, align 8, !tbaa !3
  %33 = load i64, ptr @H5E_CANTSET_g, align 8, !tbaa !3
  %34 = call i32 (ptr, ptr, i32, i64, i64, ptr, ...) @H5E_printf_stack(ptr noundef nonnull @.str, ptr noundef nonnull @__func__.H5Lunregister, i32 noundef 1406, i64 noundef %32, i64 noundef %33, ptr noundef nonnull @.str.3) #7
  br label %.thread23

35:                                               ; preds = %28
  %36 = call i32 @H5E_clear_stack() #7
  %or.cond = icmp ugt i32 %0, 255
  br i1 %or.cond, label %37, label %41, !prof !19

37:                                               ; preds = %35
  %38 = load i64, ptr @H5E_ARGS_g, align 8, !tbaa !3
  %39 = load i64, ptr @H5E_BADVALUE_g, align 8, !tbaa !3
  %40 = call i32 (ptr, ptr, i32, i64, i64, ptr, ...) @H5E_printf_stack(ptr noundef nonnull @.str, ptr noundef nonnull @__func__.H5Lunregister, i32 noundef 1410, i64 noundef %38, i64 noundef %39, ptr noundef nonnull @.str.70) #7
  br label %.thread29

41:                                               ; preds = %35
  %42 = call i32 @H5L_unregister(i32 noundef %0) #7
  %43 = icmp slt i32 %42, 0
  br i1 %43, label %44, label %49, !prof !19

44:                                               ; preds = %41
  %45 = load i64, ptr @H5E_LINK_g, align 8, !tbaa !3
  %46 = load i64, ptr @H5E_NOTREGISTERED_g, align 8, !tbaa !3
  %47 = call i32 (ptr, ptr, i32, i64, i64, ptr, ...) @H5E_printf_stack(ptr noundef nonnull @.str, ptr noundef nonnull @__func__.H5Lunregister, i32 noundef 1414, i64 noundef %45, i64 noundef %46, ptr noundef nonnull @.str.71) #7
  br label %.thread29

.thread29:                                        ; preds = %44, %37
  %48 = call i32 @H5CX_pop(i1 noundef zeroext true) #7
  br label %.thread23

49:                                               ; preds = %41
  %50 = call i32 @H5CX_pop(i1 noundef zeroext true) #7
  br label %52

.thread23:                                        ; preds = %31, %24, %11, %.thread29
  %51 = call i32 @H5E_dump_api_stack() #7
  br label %52

52:                                               ; preds = %49, %.thread23
  %.0131826 = phi i32 [ -1, %.thread23 ], [ 0, %49 ]
  call void @llvm.lifetime.end.p0(i64 480, ptr nonnull %2) #7
  ret i32 %.0131826
}